target datalayout = "e-m:e-p270:32:32-p271:32:32-p272:64:64-i64:64-i128:128-f80:128-n8:16:32:64-S128"
target triple = "x86_64-pc-linux-gnu"

%struct.OSSL_HPKE_AEAD_INFO = type { i16, ptr, i64, i64, i64 }

; Function Attrs: nounwind uwtable
define ptr @ossl_HPKE_AEAD_INFO_find_random(ptr noundef %0) #0 {
  %2 = alloca ptr, align 8
  %3 = alloca i32, align 4
  %4 = alloca i32, align 4
  %5 = alloca i64, align 8
  store ptr %0, ptr %2, align 8, !tbaa !20
  call void @llvm.lifetime.start.p0(i64 4, ptr %3) #5
  store i32 0, ptr %3, align 4, !tbaa !8
  call void @llvm.lifetime.start.p0(i64 4, ptr %4) #5
  store i32 0, ptr %4, align 4, !tbaa !8
  call void @llvm.lifetime.start.p0(i64 8, ptr %5) #5
  store i64 3, ptr %5, align 8, !tbaa !22
  %6 = load ptr, ptr %2, align 8, !tbaa !20
  %7 = load i64, ptr %5, align 8, !tbaa !22
  %8 = trunc i64 %7 to i32
  %9 = call i32 @ossl_rand_uniform_uint32(ptr noundef %6, i32 noundef %8, ptr noundef %4)
  store i32 %9, ptr %3, align 4, !tbaa !8
  %10 = load i32, ptr %4, align 4, !tbaa !8
  %11 = icmp eq i32 %10, 1
  br i1 %11, label %12, label %13

12:                                               ; preds = %1
  br label %17

13:                                               ; preds = %1
  %14 = load i32, ptr %3, align 4, !tbaa !8
  %15 = zext i32 %14 to i64
  %16 = getelementptr inbounds nuw [4 x %struct.OSSL_HPKE_AEAD_INFO], ptr @hpke_aead_tab, i64 0, i64 %15
  br label %17

17:                                               ; preds = %13, %12
  %18 = phi ptr [ null, %12 ], [ %16, %13 ]
  call void @llvm.lifetime.end.p0(i64 8, ptr %5) #5
  call void @llvm.lifetime.end.p0(i64 4, ptr %4) #5
  call void @llvm.lifetime.end.p0(i64 4, ptr %3) #5
  ret ptr %18
}