; Function Attrs: nounwind uwtable
define ptr @ossl_HPKE_AEAD_INFO_find_random(ptr noundef %0) local_unnamed_addr #0 {
  %2 = alloca i32, align 4
  call void @llvm.lifetime.start.p0(i64 4, ptr nonnull %2) #5
  store i32 0, ptr %2, align 4, !tbaa !16
  %3 = call i32 @ossl_rand_uniform_uint32(ptr noundef %0, i32 noundef 3, ptr noundef nonnull %2) #5
  %4 = load i32, ptr %2, align 4, !tbaa !16
  %5 = icmp eq i32 %4, 1
  %6 = zext i32 %3 to i64
  %7 = getelementptr inbounds nuw [4 x %struct.OSSL_HPKE_AEAD_INFO], ptr @hpke_aead_tab, i64 0, i64 %6
  %8 = select i1 %5, ptr null, ptr %7
  call void @llvm.lifetime.end.p0(i64 4, ptr nonnull %2) #5
  ret ptr %8
}